target datalayout = "e-m:e-p270:32:32-p271:32:32-p272:64:64-i64:64-i128:128-f80:128-n8:16:32:64-S128"
target triple = "x86_64-pc-linux-gnu"

%struct.pcre2_memctl = type { ptr, ptr, ptr }
%struct.sljit_stack = type { ptr, ptr, ptr, ptr }
%struct.pcre2_real_jit_stack_8 = type { %struct.pcre2_memctl, ptr }

@get_page_alignment.sljit_page_align = internal global i64 0, align 8

; Function Attrs: nounwind uwtable
define internal void @pcre2_jit_free(ptr noundef %0, ptr noundef %1) #0 {
  %3 = alloca ptr, align 8
  %4 = alloca ptr, align 8
  %5 = alloca ptr, align 8
  store ptr %0, ptr %3, align 8
  store ptr %1, ptr %4, align 8
  %6 = load ptr, ptr %4, align 8
  store ptr %6, ptr %5, align 8
  %7 = load ptr, ptr %5, align 8
  %8 = getelementptr inbounds %struct.pcre2_memctl, ptr %7, i32 0, i32 1
  %9 = load ptr, ptr %8, align 8
  %10 = load ptr, ptr %3, align 8
  %11 = load ptr, ptr %5, align 8
  %12 = getelementptr inbounds %struct.pcre2_memctl, ptr %11, i32 0, i32 2
  %13 = load ptr, ptr %12, align 8
  call void %9(ptr noundef %10, ptr noundef %13)
  ret void
}

; Function Attrs: nounwind uwtable
define internal i64 @get_page_alignment() #0 {
  %1 = alloca i64, align 8
  %2 = load i64, ptr @get_page_alignment.sljit_page_align, align 8
  %3 = icmp ne i64 %2, 0
  br i1 %3, label %12, label %4

4:                                                ; preds = %0
  %5 = call i64 @sysconf(i32 noundef 30) #6
  store i64 %5, ptr %1, align 8
  %6 = load i64, ptr %1, align 8
  %7 = icmp slt i64 %6, 0
  br i1 %7, label %8, label %9

8:                                                ; preds = %4
  store i64 4096, ptr %1, align 8
  br label %9

9:                                                ; preds = %8, %4
  %10 = load i64, ptr %1, align 8
  %11 = sub i64 %10, 1
  store i64 %11, ptr @get_page_alignment.sljit_page_align, align 8
  br label %12

12:                                               ; preds = %9, %0
  %13 = load i64, ptr @get_page_alignment.sljit_page_align, align 8
  ret i64 %13
}

; Function Attrs: nounwind uwtable
define internal ptr @pcre2_jit_malloc(i64 noundef %0, ptr noundef %1) #0 {
  %3 = alloca i64, align 8
  %4 = alloca ptr, align 8
  %5 = alloca ptr, align 8
  store i64 %0, ptr %3, align 8
  store ptr %1, ptr %4, align 8
  %6 = load ptr, ptr %4, align 8
  store ptr %6, ptr %5, align 8
  %7 = load ptr, ptr %5, align 8
  %8 = getelementptr inbounds %struct.pcre2_memctl, ptr %7, i32 0, i32 0
  %9 = load ptr, ptr %8, align 8
  %10 = load i64, ptr %3, align 8
  %11 = load ptr, ptr %5, align 8
  %12 = getelementptr inbounds %struct.pcre2_memctl, ptr %11, i32 0, i32 2
  %13 = load ptr, ptr %12, align 8
  %14 = call ptr %9(i64 noundef %10, ptr noundef %13)
  ret ptr %14
}

; Function Attrs: nounwind uwtable
define internal ptr @sljit_allocate_stack(i64 noundef %0, i64 noundef %1, ptr noundef %2) #0 {
  %4 = alloca ptr, align 8
  %5 = alloca i64, align 8
  %6 = alloca i64, align 8
  %7 = alloca ptr, align 8
  %8 = alloca ptr, align 8
  %9 = alloca ptr, align 8
  %10 = alloca i64, align 8
  store i64 %0, ptr %5, align 8
  store i64 %1, ptr %6, align 8
  store ptr %2, ptr %7, align 8
  %11 = load i64, ptr %5, align 8
  %12 = load i64, ptr %6, align 8
  %13 = icmp ugt i64 %11, %12
  br i1 %13, label %17, label %14

14:                                               ; preds = %3
  %15 = load i64, ptr %5, align 8
  %16 = icmp ult i64 %15, 1
  br i1 %16, label %17, label %18

17:                                               ; preds = %14, %3
  store ptr null, ptr %4, align 8
  br label %64

18:                                               ; preds = %14
  %19 = load ptr, ptr %7, align 8
  %20 = call ptr @pcre2_jit_malloc(i64 noundef 32, ptr noundef %19)
  store ptr %20, ptr %8, align 8
  %21 = load ptr, ptr %8, align 8
  %22 = icmp eq ptr %21, null
  br i1 %22, label %23, label %24

23:                                               ; preds = %18
  store ptr null, ptr %4, align 8
  br label %64

24:                                               ; preds = %18
  %25 = call i64 @get_page_alignment()
  store i64 %25, ptr %10, align 8
  %26 = load i64, ptr %6, align 8
  %27 = load i64, ptr %10, align 8
  %28 = add i64 %26, %27
  %29 = load i64, ptr %10, align 8
  %30 = xor i64 %29, -1
  %31 = and i64 %28, %30
  store i64 %31, ptr %6, align 8
  %32 = load i64, ptr %6, align 8
  %33 = call ptr @mmap(ptr noundef null, i64 noundef %32, i32 noundef 3, i32 noundef 34, i32 noundef -1, i64 noundef 0) #6
  store ptr %33, ptr %9, align 8
  %34 = load ptr, ptr %9, align 8
  %35 = icmp eq ptr %34, inttoptr (i64 -1 to ptr)
  br i1 %35, label %36, label %39

36:                                               ; preds = %24
  %37 = load ptr, ptr %8, align 8
  %38 = load ptr, ptr %7, align 8
  call void @pcre2_jit_free(ptr noundef %37, ptr noundef %38)
  store ptr null, ptr %4, align 8
  br label %64

39:                                               ; preds = %24
  %40 = load ptr, ptr %9, align 8
  %41 = load ptr, ptr %8, align 8
  %42 = getelementptr inbounds %struct.sljit_stack, ptr %41, i32 0, i32 3
  store ptr %40, ptr %42, align 8
  %43 = load ptr, ptr %8, align 8
  %44 = getelementptr inbounds %struct.sljit_stack, ptr %43, i32 0, i32 3
  %45 = load ptr, ptr %44, align 8
  %46 = load i64, ptr %6, align 8
  %47 = getelementptr inbounds i8, ptr %45, i64 %46
  %48 = load ptr, ptr %8, align 8
  %49 = getelementptr inbounds %struct.sljit_stack, ptr %48, i32 0, i32 1
  store ptr %47, ptr %49, align 8
  %50 = load ptr, ptr %8, align 8
  %51 = getelementptr inbounds %struct.sljit_stack, ptr %50, i32 0, i32 1
  %52 = load ptr, ptr %51, align 8
  %53 = load i64, ptr %5, align 8
  %54 = sub i64 0, %53
  %55 = getelementptr inbounds i8, ptr %52, i64 %54
  %56 = load ptr, ptr %8, align 8
  %57 = getelementptr inbounds %struct.sljit_stack, ptr %56, i32 0, i32 2
  store ptr %55, ptr %57, align 8
  %58 = load ptr, ptr %8, align 8
  %59 = getelementptr inbounds %struct.sljit_stack, ptr %58, i32 0, i32 1
  %60 = load ptr, ptr %59, align 8
  %61 = load ptr, ptr %8, align 8
  %62 = getelementptr inbounds %struct.sljit_stack, ptr %61, i32 0, i32 0
  store ptr %60, ptr %62, align 8
  %63 = load ptr, ptr %8, align 8
  store ptr %63, ptr %4, align 8
  br label %64

64:                                               ; preds = %39, %36, %23, %17
  %65 = load ptr, ptr %4, align 8
  ret ptr %65
}

; Function Attrs: nounwind uwtable
define ptr @php_pcre2_jit_stack_create(i64 noundef %0, i64 noundef %1, ptr noundef %2) #0 {
  %4 = alloca ptr, align 8
  %5 = alloca i64, align 8
  %6 = alloca i64, align 8
  %7 = alloca ptr, align 8
  %8 = alloca ptr, align 8
  store i64 %0, ptr %5, align 8
  store i64 %1, ptr %6, align 8
  store ptr %2, ptr %7, align 8
  %9 = load i64, ptr %5, align 8
  %10 = icmp eq i64 %9, 0
  br i1 %10, label %17, label %11

11:                                               ; preds = %3
  %12 = load i64, ptr %6, align 8
  %13 = icmp eq i64 %12, 0
  br i1 %13, label %17, label %14

14:                                               ; preds = %11
  %15 = load i64, ptr %6, align 8
  %16 = icmp ugt i64 %15, -8193
  br i1 %16, label %17, label %18

17:                                               ; preds = %14, %11, %3
  store ptr null, ptr %4, align 8
  br label %62

18:                                               ; preds = %14
  %19 = load i64, ptr %5, align 8
  %20 = load i64, ptr %6, align 8
  %21 = icmp ugt i64 %19, %20
  br i1 %21, label %22, label %24

22:                                               ; preds = %18
  %23 = load i64, ptr %6, align 8
  store i64 %23, ptr %5, align 8
  br label %24

24:                                               ; preds = %22, %18
  %25 = load i64, ptr %5, align 8
  %26 = add i64 %25, 8192
  %27 = sub i64 %26, 1
  %28 = and i64 %27, -8192
  store i64 %28, ptr %5, align 8
  %29 = load i64, ptr %6, align 8
  %30 = add i64 %29, 8192
  %31 = sub i64 %30, 1
  %32 = and i64 %31, -8192
  store i64 %32, ptr %6, align 8
  %33 = load ptr, ptr %7, align 8
  %34 = call ptr @_pcre2_memctl_malloc_8(i64 noundef 32, ptr noundef %33)
  store ptr %34, ptr %8, align 8
  %35 = load ptr, ptr %8, align 8
  %36 = icmp eq ptr %35, null
  br i1 %36, label %37, label %38

37:                                               ; preds = %24
  store ptr null, ptr %4, align 8
  br label %62

38:                                               ; preds = %24
  %39 = load i64, ptr %5, align 8
  %40 = load i64, ptr %6, align 8
  %41 = load ptr, ptr %8, align 8
  %42 = getelementptr inbounds %struct.pcre2_real_jit_stack_8, ptr %41, i32 0, i32 0
  %43 = call ptr @sljit_allocate_stack(i64 noundef %39, i64 noundef %40, ptr noundef %42)
  %44 = load ptr, ptr %8, align 8
  %45 = getelementptr inbounds %struct.pcre2_real_jit_stack_8, ptr %44, i32 0, i32 1
  store ptr %43, ptr %45, align 8
  %46 = load ptr, ptr %8, align 8
  %47 = getelementptr inbounds %struct.pcre2_real_jit_stack_8, ptr %46, i32 0, i32 1
  %48 = load ptr, ptr %47, align 8
  %49 = icmp eq ptr %48, null
  br i1 %49, label %50, label %60

50:                                               ; preds = %38
  %51 = load ptr, ptr %8, align 8
  %52 = getelementptr inbounds %struct.pcre2_real_jit_stack_8, ptr %51, i32 0, i32 0
  %53 = getelementptr inbounds %struct.pcre2_memctl, ptr %52, i32 0, i32 1
  %54 = load ptr, ptr %53, align 8
  %55 = load ptr, ptr %8, align 8
  %56 = load ptr, ptr %8, align 8
  %57 = getelementptr inbounds %struct.pcre2_real_jit_stack_8, ptr %56, i32 0, i32 0
  %58 = getelementptr inbounds %struct.pcre2_memctl, ptr %57, i32 0, i32 2
  %59 = load ptr, ptr %58, align 8
  call void %54(ptr noundef %55, ptr noundef %59)
  store ptr null, ptr %4, align 8
  br label %62

60:                                               ; preds = %38
  %61 = load ptr, ptr %8, align 8
  store ptr %61, ptr %4, align 8
  br label %62

62:                                               ; preds = %60, %50, %37, %17
  %63 = load ptr, ptr %4, align 8
  ret ptr %63
}