; Function Attrs: nounwind uwtable
define ptr @php_pcre2_jit_stack_create(i64 noundef %0, i64 noundef %1, ptr noundef %2) local_unnamed_addr #0 {
  %4 = icmp eq i64 %0, 0
  %5 = add i64 %1, 8192
  %6 = icmp ult i64 %5, 8193
  %or.cond3 = or i1 %4, %6
  br i1 %or.cond3, label %48, label %7

7:                                                ; preds = %3
  %8 = tail call ptr @_pcre2_memctl_malloc_8(i64 noundef 32, ptr noundef %2) #18
  %9 = icmp eq ptr %8, null
  br i1 %9, label %48, label %10

10:                                               ; preds = %7
  %spec.select = tail call i64 @llvm.umin.i64(i64 %0, i64 %1)
  %11 = add nuw i64 %1, 8191
  %12 = and i64 %11, -8192
  %13 = add nuw i64 %spec.select, 8191
  %14 = and i64 %13, -8192
  %15 = add i64 %14, -1
  %or.cond.not.i = icmp ult i64 %15, %12
  br i1 %or.cond.not.i, label %16, label %42

16:                                               ; preds = %10
  %.val.i = load ptr, ptr %8, align 8
  %17 = getelementptr i8, ptr %8, i64 16
  %.val28.i = load ptr, ptr %17, align 8
  %18 = tail call ptr %.val.i(i64 noundef 32, ptr noundef %.val28.i) #18
  %19 = icmp eq ptr %18, null
  br i1 %19, label %42, label %20

20:                                               ; preds = %16
  %21 = load i64, ptr @get_page_alignment.sljit_page_align, align 8
  %.not.i.i = icmp eq i64 %21, 0
  br i1 %.not.i.i, label %22, label %get_page_alignment.exit.i

22:                                               ; preds = %20
  %23 = tail call i64 @sysconf(i32 noundef 30) #18
  %24 = icmp slt i64 %23, 0
  %25 = add i64 %23, -1
  %26 = select i1 %24, i64 4095, i64 %25
  store i64 %26, ptr @get_page_alignment.sljit_page_align, align 8
  br label %get_page_alignment.exit.i

get_page_alignment.exit.i:                        ; preds = %22, %20
  %27 = phi i64 [ %26, %22 ], [ %21, %20 ]
  %28 = add i64 %27, %12
  %29 = xor i64 %27, -1
  %30 = and i64 %28, %29
  %31 = tail call ptr @mmap(ptr noundef null, i64 noundef %30, i32 noundef 3, i32 noundef 34, i32 noundef -1, i64 noundef 0) #18
  %32 = icmp eq ptr %31, inttoptr (i64 -1 to ptr)
  br i1 %32, label %33, label %sljit_allocate_stack.exit

33:                                               ; preds = %get_page_alignment.exit.i
  %34 = getelementptr i8, ptr %8, i64 8
  %.val29.i = load ptr, ptr %34, align 8
  %.val30.i = load ptr, ptr %17, align 8
  tail call void %.val29.i(ptr noundef nonnull %18, ptr noundef %.val30.i) #18
  br label %42

sljit_allocate_stack.exit:                        ; preds = %get_page_alignment.exit.i
  %35 = getelementptr inbounds i8, ptr %18, i64 24
  store ptr %31, ptr %35, align 8
  %36 = getelementptr inbounds i8, ptr %31, i64 %30
  %37 = getelementptr inbounds i8, ptr %18, i64 8
  store ptr %36, ptr %37, align 8
  %38 = sub i64 0, %14
  %39 = getelementptr inbounds i8, ptr %36, i64 %38
  %40 = getelementptr inbounds i8, ptr %18, i64 16
  store ptr %39, ptr %40, align 8
  store ptr %36, ptr %18, align 8
  %41 = getelementptr inbounds i8, ptr %8, i64 24
  store ptr %18, ptr %41, align 8
  br label %48

42:                                               ; preds = %33, %10, %16
  %43 = getelementptr inbounds i8, ptr %8, i64 24
  store ptr null, ptr %43, align 8
  %44 = getelementptr inbounds i8, ptr %8, i64 8
  %45 = load ptr, ptr %44, align 8
  %46 = getelementptr inbounds i8, ptr %8, i64 16
  %47 = load ptr, ptr %46, align 8
  tail call void %45(ptr noundef nonnull %8, ptr noundef %47) #18
  br label %48

48:                                               ; preds = %sljit_allocate_stack.exit, %7, %3, %42
  %.0 = phi ptr [ null, %42 ], [ null, %3 ], [ null, %7 ], [ %8, %sljit_allocate_stack.exit ]
  ret ptr %.0
}